; Function Attrs: nounwind uwtable
define void @Abc_ConvertHopToGia_rec1(ptr noundef %0, ptr noundef captures(none) %1) local_unnamed_addr #0 {
  %3 = getelementptr i8, ptr %1, i64 32
  %.val = load i32, ptr %3, align 8
  %4 = and i32 %.val, 22
  %or.cond = icmp eq i32 %4, 4
  br i1 %or.cond, label %5, label %35

5:                                                ; preds = %2
  %6 = getelementptr i8, ptr %1, i64 16
  %.val13 = load ptr, ptr %6, align 8, !tbaa !3
  %7 = ptrtoint ptr %.val13 to i64
  %8 = and i64 %7, -2
  %9 = inttoptr i64 %8 to ptr
  tail call void @Abc_ConvertHopToGia_rec1(ptr noundef %0, ptr noundef %9)
  %10 = getelementptr i8, ptr %1, i64 24
  %.val14 = load ptr, ptr %10, align 8, !tbaa !10
  %11 = ptrtoint ptr %.val14 to i64
  %12 = and i64 %11, -2
  %13 = inttoptr i64 %12 to ptr
  tail call void @Abc_ConvertHopToGia_rec1(ptr noundef %0, ptr noundef %13)
  %.val15 = load ptr, ptr %6, align 8, !tbaa !3
  %14 = ptrtoint ptr %.val15 to i64
  %15 = and i64 %14, -2
  %.not.i = icmp eq i64 %15, 0
  br i1 %.not.i, label %Hop_ObjChild0CopyI.exit, label %16

16:                                               ; preds = %5
  %17 = inttoptr i64 %15 to ptr
  %18 = load i32, ptr %17, align 8, !tbaa !11
  %19 = trunc i64 %14 to i32
  %20 = and i32 %19, 1
  %21 = xor i32 %18, %20
  br label %Hop_ObjChild0CopyI.exit

Hop_ObjChild0CopyI.exit:                          ; preds = %5, %16
  %22 = phi i32 [ %21, %16 ], [ -1, %5 ]
  %.val16 = load ptr, ptr %10, align 8, !tbaa !10
  %23 = ptrtoint ptr %.val16 to i64
  %24 = and i64 %23, -2
  %.not.i17 = icmp eq i64 %24, 0
  br i1 %.not.i17, label %Hop_ObjChild1CopyI.exit, label %25

25:                                               ; preds = %Hop_ObjChild0CopyI.exit
  %26 = inttoptr i64 %24 to ptr
  %27 = load i32, ptr %26, align 8, !tbaa !11
  %28 = trunc i64 %23 to i32
  %29 = and i32 %28, 1
  %30 = xor i32 %27, %29
  br label %Hop_ObjChild1CopyI.exit

Hop_ObjChild1CopyI.exit:                          ; preds = %Hop_ObjChild0CopyI.exit, %25
  %31 = phi i32 [ %30, %25 ], [ -1, %Hop_ObjChild0CopyI.exit ]
  %32 = tail call i32 @Gia_ManHashAnd(ptr noundef %0, i32 noundef %22, i32 noundef %31) #15
  store i32 %32, ptr %1, align 8, !tbaa !11
  %33 = load i32, ptr %3, align 8
  %34 = or i32 %33, 16
  store i32 %34, ptr %3, align 8
  br label %35

35:                                               ; preds = %2, %Hop_ObjChild1CopyI.exit
  ret void
}